target datalayout = "e-m:e-p270:32:32-p271:32:32-p272:64:64-i64:64-i128:128-f80:128-n8:16:32:64-S128"
target triple = "x86_64-pc-linux-gnu"

%struct.expert_field = type { i32, i32 }

@ei_bundle_sdnv_length = internal global %struct.expert_field zeroinitializer, align 4
@.str.322 = private unnamed_addr constant [1 x i8] zeroinitializer, align 1
@.str.323 = private unnamed_addr constant [30 x i8] c"epan/dissectors/packet-bpv6.c\00", align 1
@__func__.evaluate_sdnv = private unnamed_addr constant [14 x i8] c"evaluate_sdnv\00", align 1
@.str.324 = private unnamed_addr constant [69 x i8] c"evaluate_sdnv decoded a value too large to fit in an int, truncating\00", align 1

; Function Attrs: null_pointer_is_valid sspstrong uwtable
define internal i32 @evaluate_sdnv(ptr noundef %0, i32 noundef %1, ptr noundef %2) #0 {
  %4 = alloca i32, align 4
  %5 = alloca ptr, align 8
  %6 = alloca i32, align 4
  %7 = alloca ptr, align 8
  %8 = alloca i64, align 8
  %9 = alloca i32, align 4
  store ptr %0, ptr %5, align 8
  store i32 %1, ptr %6, align 4
  store ptr %2, ptr %7, align 8
  call void @llvm.lifetime.start.p0(i64 8, ptr %8) #7
  store i64 0, ptr %8, align 8
  %10 = load ptr, ptr %5, align 8
  %11 = load i32, ptr %6, align 4
  %12 = call i32 @tvb_get_varint(ptr noundef %10, i32 noundef %11, i32 noundef 10, ptr noundef %8, i32 noundef 16)
  %13 = load ptr, ptr %7, align 8
  store i32 %12, ptr %13, align 4
  %14 = load ptr, ptr %7, align 8
  %15 = load i32, ptr %14, align 4
  %16 = icmp eq i32 %15, 0
  br i1 %16, label %17, label %18

17:                                               ; preds = %3
  store i32 -1, ptr %4, align 4
  store i32 1, ptr %9, align 4
  br label %28

18:                                               ; preds = %3
  %19 = load i64, ptr %8, align 8
  %20 = icmp ugt i64 %19, 2147483647
  br i1 %20, label %21, label %25

21:                                               ; preds = %18
  br label %22

22:                                               ; preds = %21
  call void (ptr, i32, ptr, i64, ptr, ptr, ...) @ws_log_full(ptr noundef @.str.322, i32 noundef 5, ptr noundef @.str.323, i64 noundef 1859, ptr noundef @__func__.evaluate_sdnv, ptr noundef @.str.324)
  br label %23

23:                                               ; preds = %22
  br label %24

24:                                               ; preds = %23
  store i32 2147483647, ptr %4, align 4
  store i32 1, ptr %9, align 4
  br label %28

25:                                               ; preds = %18
  %26 = load i64, ptr %8, align 8
  %27 = trunc i64 %26 to i32
  store i32 %27, ptr %4, align 4
  store i32 1, ptr %9, align 4
  br label %28

28:                                               ; preds = %25, %24, %17
  call void @llvm.lifetime.end.p0(i64 8, ptr %8) #7
  %29 = load i32, ptr %4, align 4
  ret i32 %29
}

; Function Attrs: null_pointer_is_valid sspstrong uwtable
define internal i32 @add_sdnv_to_tree(ptr noundef %0, ptr noundef %1, ptr noundef %2, i32 noundef %3, i32 noundef %4) #0 {
  %6 = alloca i32, align 4
  %7 = alloca ptr, align 8
  %8 = alloca ptr, align 8
  %9 = alloca ptr, align 8
  %10 = alloca i32, align 4
  %11 = alloca i32, align 4
  %12 = alloca ptr, align 8
  %13 = alloca i32, align 4
  %14 = alloca i32, align 4
  %15 = alloca i32, align 4
  store ptr %0, ptr %7, align 8
  store ptr %1, ptr %8, align 8
  store ptr %2, ptr %9, align 8
  store i32 %3, ptr %10, align 4
  store i32 %4, ptr %11, align 4
  call void @llvm.lifetime.start.p0(i64 8, ptr %12) #7
  call void @llvm.lifetime.start.p0(i64 4, ptr %13) #7
  call void @llvm.lifetime.start.p0(i64 4, ptr %14) #7
  %16 = load ptr, ptr %8, align 8
  %17 = load i32, ptr %10, align 4
  %18 = call i32 @evaluate_sdnv(ptr noundef %16, i32 noundef %17, ptr noundef %13)
  store i32 %18, ptr %14, align 4
  %19 = load ptr, ptr %7, align 8
  %20 = load i32, ptr %11, align 4
  %21 = load ptr, ptr %8, align 8
  %22 = load i32, ptr %10, align 4
  %23 = load i32, ptr %13, align 4
  %24 = load i32, ptr %14, align 4
  %25 = call ptr @proto_tree_add_int(ptr noundef %19, i32 noundef %20, ptr noundef %21, i32 noundef %22, i32 noundef %23, i32 noundef %24)
  store ptr %25, ptr %12, align 8
  %26 = load i32, ptr %14, align 4
  %27 = icmp slt i32 %26, 0
  br i1 %27, label %28, label %32

28:                                               ; preds = %5
  %29 = load ptr, ptr %9, align 8
  %30 = load ptr, ptr %12, align 8
  %31 = call ptr @expert_add_info(ptr noundef %29, ptr noundef %30, ptr noundef @ei_bundle_sdnv_length)
  store i32 0, ptr %6, align 4
  store i32 1, ptr %15, align 4
  br label %34

32:                                               ; preds = %5
  %33 = load i32, ptr %13, align 4
  store i32 %33, ptr %6, align 4
  store i32 1, ptr %15, align 4
  br label %34

34:                                               ; preds = %32, %28
  call void @llvm.lifetime.end.p0(i64 4, ptr %14) #7
  call void @llvm.lifetime.end.p0(i64 4, ptr %13) #7
  call void @llvm.lifetime.end.p0(i64 8, ptr %12) #7
  %35 = load i32, ptr %6, align 4
  ret i32 %35
}