; Function Attrs: null_pointer_is_valid sspstrong uwtable
define internal fastcc i32 @add_sdnv_to_tree(ptr noundef %0, ptr noundef %1, ptr noundef %2, i32 noundef %3, i32 noundef %4) unnamed_addr #0 {
  %6 = alloca i64, align 8
  call void @llvm.lifetime.start.p0(i64 8, ptr nonnull %6) #6
  store i64 0, ptr %6, align 8
  %7 = call i32 @tvb_get_varint(ptr noundef %1, i32 noundef %3, i32 noundef 10, ptr noundef nonnull %6, i32 noundef 16)
  %8 = icmp eq i32 %7, 0
  br i1 %8, label %15, label %9

9:                                                ; preds = %5
  %10 = load i64, ptr %6, align 8
  %11 = icmp ugt i64 %10, 2147483647
  br i1 %11, label %12, label %13

12:                                               ; preds = %9
  call void (ptr, i32, ptr, i64, ptr, ptr, ...) @ws_log_full(ptr noundef nonnull @.str.322, i32 noundef 5, ptr noundef nonnull @.str.323, i64 noundef 1859, ptr noundef nonnull @__func__.evaluate_sdnv, ptr noundef nonnull @.str.324)
  br label %18

13:                                               ; preds = %9
  %14 = trunc nuw nsw i64 %10 to i32
  br label %18

15:                                               ; preds = %5
  call void @llvm.lifetime.end.p0(i64 8, ptr nonnull %6) #6
  %16 = call ptr @proto_tree_add_int(ptr noundef %0, i32 noundef %4, ptr noundef %1, i32 noundef %3, i32 noundef 0, i32 noundef -1)
  %17 = call ptr @expert_add_info(ptr noundef %2, ptr noundef %16, ptr noundef nonnull @ei_bundle_sdnv_length)
  br label %20

18:                                               ; preds = %12, %13
  %.0.i.ph = phi i32 [ %14, %13 ], [ 2147483647, %12 ]
  call void @llvm.lifetime.end.p0(i64 8, ptr nonnull %6) #6
  %19 = call ptr @proto_tree_add_int(ptr noundef %0, i32 noundef %4, ptr noundef %1, i32 noundef %3, i32 noundef %7, i32 noundef %.0.i.ph)
  br label %20

20:                                               ; preds = %18, %15
  ret i32 %7
}